target datalayout = "e-m:e-p270:32:32-p271:32:32-p272:64:64-i64:64-i128:128-f80:128-n8:16:32:64-S128"
target triple = "x86_64-pc-linux-gnu"

%"class.clang::SourceLocation" = type { i32 }
%"class.clang::SourceRange" = type { %"class.clang::SourceLocation", %"class.clang::SourceLocation" }
%"class.clang::DeclarationName" = type { i64 }
%"class.clang::NamedDecl" = type { %"class.clang::Decl.base", %"class.clang::DeclarationName" }
%"class.clang::Decl.base" = type <{ ptr, %"class.llvm::PointerIntPair.518", %"class.llvm::PointerUnion", %"class.clang::SourceLocation", i32, i8 }>
%"class.llvm::PointerIntPair.518" = type { %"struct.llvm::detail::PunnedPointer.519" }
%"struct.llvm::detail::PunnedPointer.519" = type { [8 x i8] }
%"class.llvm::PointerUnion" = type { %"class.llvm::pointer_union_detail::PointerUnionMembers" }
%"class.llvm::pointer_union_detail::PointerUnionMembers" = type { %"class.llvm::pointer_union_detail::PointerUnionMembers.520" }
%"class.llvm::pointer_union_detail::PointerUnionMembers.520" = type { %"class.llvm::pointer_union_detail::PointerUnionMembers.521" }
%"class.llvm::pointer_union_detail::PointerUnionMembers.521" = type { %"class.llvm::PointerIntPair.522" }
%"class.llvm::PointerIntPair.522" = type { %"struct.llvm::detail::PunnedPointer.523" }
%"struct.llvm::detail::PunnedPointer.523" = type { [8 x i8] }
%"class.clang::DeclContext" = type { ptr, %union.anon.524, ptr, ptr }
%union.anon.524 = type { %"class.clang::DeclContext::RecordDeclBitfields" }
%"class.clang::DeclContext::RecordDeclBitfields" = type { i64 }
%"class.llvm::iterator_range.1381" = type { ptr, ptr }
%"class.clang::ObjCContainerDecl" = type { %"class.clang::NamedDecl", %"class.clang::DeclContext", %"class.clang::SourceRange" }
%"class.llvm::PointerUnion.530" = type { %"class.llvm::pointer_union_detail::PointerUnionMembers.531" }
%"class.llvm::pointer_union_detail::PointerUnionMembers.531" = type { %"class.llvm::pointer_union_detail::PointerUnionMembers.532" }
%"class.llvm::pointer_union_detail::PointerUnionMembers.532" = type { %"class.llvm::pointer_union_detail::PointerUnionMembers.533" }
%"class.llvm::pointer_union_detail::PointerUnionMembers.533" = type { %"class.llvm::PointerIntPair.534" }
%"class.llvm::PointerIntPair.534" = type { %"struct.llvm::detail::PunnedPointer.523" }
%"class.clang::Redeclarable.998" = type { %"class.clang::Redeclarable<clang::ObjCProtocolDecl>::DeclLink", ptr }
%"class.clang::Redeclarable<clang::ObjCProtocolDecl>::DeclLink" = type { %"class.llvm::PointerUnion.530" }
%"struct.clang::ObjCProtocolDecl::DefinitionData" = type { ptr, %"class.clang::ObjCProtocolList", i8, i32 }
%"class.clang::ObjCProtocolList" = type { %"class.clang::ObjCList.base", ptr }
%"class.clang::ObjCList.base" = type { %"class.clang::ObjCListBase.base" }
%"class.clang::ObjCListBase.base" = type <{ ptr, i32 }>
%"class.clang::ObjCProtocolDecl" = type { %"class.clang::ObjCContainerDecl", %"class.clang::Redeclarable.998", %"class.llvm::PointerIntPair.999" }
%"class.llvm::PointerIntPair.999" = type { %"struct.llvm::detail::PunnedPointer.1000" }
%"struct.llvm::detail::PunnedPointer.1000" = type { [8 x i8] }
%"class.clang::ObjCListBase" = type <{ ptr, i32, [4 x i8] }>

; Function Attrs: mustprogress nounwind uwtable
define linkonce_odr hidden noundef ptr @_ZN4llvm21PointerLikeTypeTraitsIPN5clang16ObjCProtocolDecl14DefinitionDataEE18getFromVoidPointerEPv(ptr noundef %0) #0 comdat align 2 {
  %2 = alloca ptr, align 8
  store ptr %0, ptr %2, align 8
  %3 = load ptr, ptr %2, align 8
  ret ptr %3
}

; Function Attrs: mustprogress nounwind uwtable
define linkonce_odr hidden noundef ptr @_ZN4llvm18PointerIntPairInfoIPN5clang16ObjCProtocolDecl14DefinitionDataELj1ENS_21PointerLikeTypeTraitsIS4_EEE10getPointerEl(i64 noundef %0) #0 comdat align 2 {
  %2 = alloca i64, align 8
  store i64 %0, ptr %2, align 8
  %3 = load i64, ptr %2, align 8
  %4 = and i64 %3, -8
  %5 = inttoptr i64 %4 to ptr
  %6 = call noundef ptr @_ZN4llvm21PointerLikeTypeTraitsIPN5clang16ObjCProtocolDecl14DefinitionDataEE18getFromVoidPointerEPv(ptr noundef %5)
  ret ptr %6
}

; Function Attrs: mustprogress nounwind uwtable
define linkonce_odr hidden noundef i64 @_ZNK4llvm6detail13PunnedPointerIPN5clang16ObjCProtocolDecl14DefinitionDataEEcvlEv(ptr noundef nonnull align 8 dereferenceable(8) %0) #0 comdat align 2 {
  %2 = alloca ptr, align 8
  store ptr %0, ptr %2, align 8
  %3 = load ptr, ptr %2, align 8
  %4 = call noundef i64 @_ZNK4llvm6detail13PunnedPointerIPN5clang16ObjCProtocolDecl14DefinitionDataEE5asIntEv(ptr noundef nonnull align 8 dereferenceable(8) %3)
  ret i64 %4
}

; Function Attrs: mustprogress nounwind uwtable
define linkonce_odr hidden noundef ptr @_ZNK5clang12RedeclarableINS_16ObjCProtocolDeclEE20getNextRedeclarationEv(ptr noundef nonnull align 8 dereferenceable(16) %0) #0 comdat align 2 {
  %2 = alloca ptr, align 8
  store ptr %0, ptr %2, align 8
  %3 = load ptr, ptr %2, align 8
  %4 = getelementptr inbounds nuw %"class.clang::Redeclarable.998", ptr %3, i32 0, i32 0
  %5 = getelementptr inbounds i8, ptr %3, i64 -88
  %6 = call noundef ptr @_ZNK5clang12RedeclarableINS_16ObjCProtocolDeclEE8DeclLink11getPreviousEPKS1_(ptr noundef nonnull align 8 dereferenceable(8) %4, ptr noundef %5)
  ret ptr %6
}

; Function Attrs: mustprogress nounwind uwtable
define linkonce_odr hidden noundef i64 @_ZNK4llvm6detail13PunnedPointerIPN5clang16ObjCProtocolDecl14DefinitionDataEE5asIntEv(ptr noundef nonnull align 8 dereferenceable(8) %0) #0 comdat align 2 {
  %2 = alloca ptr, align 8
  %3 = alloca i64, align 8
  store ptr %0, ptr %2, align 8
  %4 = load ptr, ptr %2, align 8
  store i64 0, ptr %3, align 8
  %5 = getelementptr inbounds nuw %"struct.llvm::detail::PunnedPointer.1000", ptr %4, i32 0, i32 0
  %6 = getelementptr inbounds [8 x i8], ptr %5, i64 0, i64 0
  call void @llvm.memcpy.p0.p0.i64(ptr align 8 %3, ptr align 8 %6, i64 8, i1 false)
  %7 = load i64, ptr %3, align 8
  ret i64 %7
}

; Function Attrs: mustprogress nounwind uwtable
define linkonce_odr hidden noundef ptr @_ZNK4llvm14PointerIntPairIPN5clang16ObjCProtocolDecl14DefinitionDataELj1EbNS_21PointerLikeTypeTraitsIS4_EENS_18PointerIntPairInfoIS4_Lj1ES6_EEE10getPointerEv(ptr noundef nonnull align 8 dereferenceable(8) %0) #0 comdat align 2 {
  %2 = alloca ptr, align 8
  store ptr %0, ptr %2, align 8
  %3 = load ptr, ptr %2, align 8
  %4 = getelementptr inbounds nuw %"class.llvm::PointerIntPair.999", ptr %3, i32 0, i32 0
  %5 = call noundef i64 @_ZNK4llvm6detail13PunnedPointerIPN5clang16ObjCProtocolDecl14DefinitionDataEEcvlEv(ptr noundef nonnull align 8 dereferenceable(8) %4)
  %6 = call noundef ptr @_ZN4llvm18PointerIntPairInfoIPN5clang16ObjCProtocolDecl14DefinitionDataELj1ENS_21PointerLikeTypeTraitsIS4_EEE10getPointerEl(i64 noundef %5)
  ret ptr %6
}

; Function Attrs: mustprogress nounwind uwtable
define linkonce_odr hidden noundef ptr @_ZNK5clang12RedeclarableINS_16ObjCProtocolDeclEE17getMostRecentDeclEv(ptr noundef nonnull align 8 dereferenceable(16) %0) #0 comdat align 2 {
  %2 = alloca ptr, align 8
  store ptr %0, ptr %2, align 8
  %3 = load ptr, ptr %2, align 8
  %4 = call noundef ptr @_ZNK5clang12RedeclarableINS_16ObjCProtocolDeclEE12getFirstDeclEv(ptr noundef nonnull align 8 dereferenceable(16) %3)
  %5 = getelementptr inbounds i8, ptr %4, i64 88
  %6 = call noundef ptr @_ZNK5clang12RedeclarableINS_16ObjCProtocolDeclEE20getNextRedeclarationEv(ptr noundef nonnull align 8 dereferenceable(16) %5)
  ret ptr %6
}

; Function Attrs: mustprogress nounwind uwtable
define linkonce_odr hidden noundef ptr @_ZNK4llvm14PointerIntPairIPN5clang16ObjCProtocolDecl14DefinitionDataELj1EbNS_21PointerLikeTypeTraitsIS4_EENS_18PointerIntPairInfoIS4_Lj1ES6_EEE14getOpaqueValueEv(ptr noundef nonnull align 8 dereferenceable(8) %0) #0 comdat align 2 {
  %2 = alloca ptr, align 8
  store ptr %0, ptr %2, align 8
  %3 = load ptr, ptr %2, align 8
  %4 = getelementptr inbounds nuw %"class.llvm::PointerIntPair.999", ptr %3, i32 0, i32 0
  %5 = call noundef i64 @_ZNK4llvm6detail13PunnedPointerIPN5clang16ObjCProtocolDecl14DefinitionDataEE5asIntEv(ptr noundef nonnull align 8 dereferenceable(8) %4)
  %6 = inttoptr i64 %5 to ptr
  ret ptr %6
}

; Function Attrs: mustprogress nounwind uwtable
define linkonce_odr hidden noundef ptr @_ZNK5clang8ObjCListINS_16ObjCProtocolDeclEE3endEv(ptr noundef nonnull align 8 dereferenceable(12) %0) #0 comdat align 2 {
  %2 = alloca ptr, align 8
  store ptr %0, ptr %2, align 8
  %3 = load ptr, ptr %2, align 8
  %4 = getelementptr inbounds nuw %"class.clang::ObjCListBase", ptr %3, i32 0, i32 0
  %5 = load ptr, ptr %4, align 8
  %6 = getelementptr inbounds nuw %"class.clang::ObjCListBase", ptr %3, i32 0, i32 1
  %7 = load i32, ptr %6, align 8
  %8 = zext i32 %7 to i64
  %9 = getelementptr inbounds ptr, ptr %5, i64 %8
  ret ptr %9
}

; Function Attrs: mustprogress nounwind uwtable
define linkonce_odr hidden noundef ptr @_ZNK5clang8ObjCListINS_16ObjCProtocolDeclEE5beginEv(ptr noundef nonnull align 8 dereferenceable(12) %0) #0 comdat align 2 {
  %2 = alloca ptr, align 8
  store ptr %0, ptr %2, align 8
  %3 = load ptr, ptr %2, align 8
  %4 = getelementptr inbounds nuw %"class.clang::ObjCListBase", ptr %3, i32 0, i32 0
  %5 = load ptr, ptr %4, align 8
  ret ptr %5
}

; Function Attrs: mustprogress nounwind uwtable
define linkonce_odr hidden noundef nonnull align 8 dereferenceable(40) ptr @_ZNK5clang16ObjCProtocolDecl4dataEv(ptr noundef nonnull align 8 dereferenceable(112) %0) #0 comdat align 2 {
  %2 = alloca ptr, align 8
  store ptr %0, ptr %2, align 8
  %3 = load ptr, ptr %2, align 8
  %4 = getelementptr inbounds nuw %"class.clang::ObjCProtocolDecl", ptr %3, i32 0, i32 2
  %5 = call noundef ptr @_ZNK4llvm14PointerIntPairIPN5clang16ObjCProtocolDecl14DefinitionDataELj1EbNS_21PointerLikeTypeTraitsIS4_EENS_18PointerIntPairInfoIS4_Lj1ES6_EEE10getPointerEv(ptr noundef nonnull align 8 dereferenceable(8) %4)
  ret ptr %5
}

; Function Attrs: mustprogress nounwind uwtable
define linkonce_odr hidden noundef zeroext i1 @_ZNK5clang16ObjCProtocolDecl13hasDefinitionEv(ptr noundef nonnull align 8 dereferenceable(112) %0) #0 comdat align 2 {
  %2 = alloca ptr, align 8
  store ptr %0, ptr %2, align 8
  %3 = load ptr, ptr %2, align 8
  %4 = getelementptr inbounds nuw %"class.clang::ObjCProtocolDecl", ptr %3, i32 0, i32 2
  %5 = call noundef ptr @_ZNK4llvm14PointerIntPairIPN5clang16ObjCProtocolDecl14DefinitionDataELj1EbNS_21PointerLikeTypeTraitsIS4_EENS_18PointerIntPairInfoIS4_Lj1ES6_EEE14getOpaqueValueEv(ptr noundef nonnull align 8 dereferenceable(8) %4)
  %6 = icmp ne ptr %5, null
  br i1 %6, label %10, label %7

7:                                                ; preds = %1
  %8 = getelementptr inbounds i8, ptr %3, i64 88
  %9 = call noundef ptr @_ZNK5clang12RedeclarableINS_16ObjCProtocolDeclEE17getMostRecentDeclEv(ptr noundef nonnull align 8 dereferenceable(16) %8)
  br label %10

10:                                               ; preds = %7, %1
  %11 = getelementptr inbounds nuw %"class.clang::ObjCProtocolDecl", ptr %3, i32 0, i32 2
  %12 = call noundef ptr @_ZNK4llvm14PointerIntPairIPN5clang16ObjCProtocolDecl14DefinitionDataELj1EbNS_21PointerLikeTypeTraitsIS4_EENS_18PointerIntPairInfoIS4_Lj1ES6_EEE10getPointerEv(ptr noundef nonnull align 8 dereferenceable(8) %11)
  %13 = icmp ne ptr %12, null
  ret i1 %13
}

; Function Attrs: mustprogress nounwind uwtable
define linkonce_odr hidden void @_ZN4llvm14iterator_rangeIPKPN5clang16ObjCProtocolDeclEEC2ES5_S5_(ptr noundef nonnull align 8 dereferenceable(16) %0, ptr noundef %1, ptr noundef %2) unnamed_addr #0 comdat align 2 {
  %4 = alloca ptr, align 8
  %5 = alloca ptr, align 8
  %6 = alloca ptr, align 8
  store ptr %0, ptr %4, align 8
  store ptr %1, ptr %5, align 8
  store ptr %2, ptr %6, align 8
  %7 = load ptr, ptr %4, align 8
  %8 = getelementptr inbounds nuw %"class.llvm::iterator_range.1381", ptr %7, i32 0, i32 0
  %9 = load ptr, ptr %5, align 8
  store ptr %9, ptr %8, align 8
  %10 = getelementptr inbounds nuw %"class.llvm::iterator_range.1381", ptr %7, i32 0, i32 1
  %11 = load ptr, ptr %6, align 8
  store ptr %11, ptr %10, align 8
  ret void
}

; Function Attrs: mustprogress nounwind uwtable
define linkonce_odr hidden noundef ptr @_ZNK5clang16ObjCProtocolDecl12protocol_endEv(ptr noundef nonnull align 8 dereferenceable(112) %0) #0 comdat align 2 {
  %2 = alloca ptr, align 8
  %3 = alloca ptr, align 8
  store ptr %0, ptr %3, align 8
  %4 = load ptr, ptr %3, align 8
  %5 = call noundef zeroext i1 @_ZNK5clang16ObjCProtocolDecl13hasDefinitionEv(ptr noundef nonnull align 8 dereferenceable(112) %4)
  br i1 %5, label %7, label %6

6:                                                ; preds = %1
  store ptr null, ptr %2, align 8
  br label %11

7:                                                ; preds = %1
  %8 = call noundef nonnull align 8 dereferenceable(40) ptr @_ZNK5clang16ObjCProtocolDecl4dataEv(ptr noundef nonnull align 8 dereferenceable(112) %4)
  %9 = getelementptr inbounds nuw %"struct.clang::ObjCProtocolDecl::DefinitionData", ptr %8, i32 0, i32 1
  %10 = call noundef ptr @_ZNK5clang8ObjCListINS_16ObjCProtocolDeclEE3endEv(ptr noundef nonnull align 8 dereferenceable(12) %9)
  store ptr %10, ptr %2, align 8
  br label %11

11:                                               ; preds = %7, %6
  %12 = load ptr, ptr %2, align 8
  ret ptr %12
}

; Function Attrs: mustprogress nounwind uwtable
define linkonce_odr hidden noundef ptr @_ZNK5clang16ObjCProtocolDecl14protocol_beginEv(ptr noundef nonnull align 8 dereferenceable(112) %0) #0 comdat align 2 {
  %2 = alloca ptr, align 8
  %3 = alloca ptr, align 8
  store ptr %0, ptr %3, align 8
  %4 = load ptr, ptr %3, align 8
  %5 = call noundef zeroext i1 @_ZNK5clang16ObjCProtocolDecl13hasDefinitionEv(ptr noundef nonnull align 8 dereferenceable(112) %4)
  br i1 %5, label %7, label %6

6:                                                ; preds = %1
  store ptr null, ptr %2, align 8
  br label %11

7:                                                ; preds = %1
  %8 = call noundef nonnull align 8 dereferenceable(40) ptr @_ZNK5clang16ObjCProtocolDecl4dataEv(ptr noundef nonnull align 8 dereferenceable(112) %4)
  %9 = getelementptr inbounds nuw %"struct.clang::ObjCProtocolDecl::DefinitionData", ptr %8, i32 0, i32 1
  %10 = call noundef ptr @_ZNK5clang8ObjCListINS_16ObjCProtocolDeclEE5beginEv(ptr noundef nonnull align 8 dereferenceable(12) %9)
  store ptr %10, ptr %2, align 8
  br label %11

11:                                               ; preds = %7, %6
  %12 = load ptr, ptr %2, align 8
  ret ptr %12
}

; Function Attrs: mustprogress nounwind uwtable
define linkonce_odr hidden noundef ptr @_ZNK5clang12RedeclarableINS_16ObjCProtocolDeclEE12getFirstDeclEv(ptr noundef nonnull align 8 dereferenceable(16) %0) #0 comdat align 2 {
  %2 = alloca ptr, align 8
  store ptr %0, ptr %2, align 8
  %3 = load ptr, ptr %2, align 8
  %4 = getelementptr inbounds nuw %"class.clang::Redeclarable.998", ptr %3, i32 0, i32 1
  %5 = load ptr, ptr %4, align 8
  ret ptr %5
}

; Function Attrs: mustprogress nounwind uwtable
define linkonce_odr hidden noundef ptr @_ZNK4llvm14iterator_rangeIPKPN5clang16ObjCProtocolDeclEE3endEv(ptr noundef nonnull align 8 dereferenceable(16) %0) #0 comdat align 2 {
  %2 = alloca ptr, align 8
  store ptr %0, ptr %2, align 8
  %3 = load ptr, ptr %2, align 8
  %4 = getelementptr inbounds nuw %"class.llvm::iterator_range.1381", ptr %3, i32 0, i32 1
  %5 = load ptr, ptr %4, align 8
  ret ptr %5
}

; Function Attrs: mustprogress nounwind uwtable
define linkonce_odr hidden noundef ptr @_ZNK4llvm14iterator_rangeIPKPN5clang16ObjCProtocolDeclEE5beginEv(ptr noundef nonnull align 8 dereferenceable(16) %0) #0 comdat align 2 {
  %2 = alloca ptr, align 8
  store ptr %0, ptr %2, align 8
  %3 = load ptr, ptr %2, align 8
  %4 = getelementptr inbounds nuw %"class.llvm::iterator_range.1381", ptr %3, i32 0, i32 0
  %5 = load ptr, ptr %4, align 8
  ret ptr %5
}

; Function Attrs: mustprogress nounwind uwtable
define linkonce_odr hidden { ptr, ptr } @_ZNK5clang16ObjCProtocolDecl9protocolsEv(ptr noundef nonnull align 8 dereferenceable(112) %0) #0 comdat align 2 {
  %2 = alloca %"class.llvm::iterator_range.1381", align 8
  %3 = alloca ptr, align 8
  store ptr %0, ptr %3, align 8
  %4 = load ptr, ptr %3, align 8
  %5 = call noundef ptr @_ZNK5clang16ObjCProtocolDecl14protocol_beginEv(ptr noundef nonnull align 8 dereferenceable(112) %4)
  %6 = call noundef ptr @_ZNK5clang16ObjCProtocolDecl12protocol_endEv(ptr noundef nonnull align 8 dereferenceable(112) %4)
  call void @_ZN4llvm14iterator_rangeIPKPN5clang16ObjCProtocolDeclEEC2ES5_S5_(ptr noundef nonnull align 8 dereferenceable(16) %2, ptr noundef %5, ptr noundef %6)
  %7 = load { ptr, ptr }, ptr %2, align 8
  ret { ptr, ptr } %7
}

; Function Attrs: mustprogress nounwind uwtable
define linkonce_odr hidden noundef ptr @_ZNK5clang16ObjCProtocolDecl16getCanonicalDeclEv(ptr noundef nonnull align 8 dereferenceable(112) %0) #0 comdat align 2 {
  %2 = alloca ptr, align 8
  store ptr %0, ptr %2, align 8
  %3 = load ptr, ptr %2, align 8
  %4 = getelementptr inbounds i8, ptr %3, i64 88
  %5 = call noundef ptr @_ZNK5clang12RedeclarableINS_16ObjCProtocolDeclEE12getFirstDeclEv(ptr noundef nonnull align 8 dereferenceable(16) %4)
  ret ptr %5
}

; Function Attrs: mustprogress nounwind uwtable
define internal void @_ZL34AppendFirstImpliedRuntimeProtocolsPKN5clang16ObjCProtocolDeclERN4llvm12UniqueVectorIS2_EE(ptr noundef %0, ptr noundef nonnull align 8 dereferenceable(72) %1) #0 {
  %3 = alloca ptr, align 8
  %4 = alloca ptr, align 8
  %5 = alloca ptr, align 8
  %6 = alloca ptr, align 8
  %7 = alloca %"class.llvm::iterator_range.1381", align 8
  %8 = alloca ptr, align 8
  %9 = alloca ptr, align 8
  %10 = alloca ptr, align 8
  store ptr %0, ptr %3, align 8
  store ptr %1, ptr %4, align 8
  %11 = load ptr, ptr %3, align 8
  %12 = call noundef zeroext i1 @_ZNK5clang16ObjCProtocolDecl20isNonRuntimeProtocolEv(ptr noundef nonnull align 8 dereferenceable(112) %11)
  br i1 %12, label %18, label %13

13:                                               ; preds = %2
  %14 = load ptr, ptr %3, align 8
  %15 = call noundef ptr @_ZNK5clang16ObjCProtocolDecl16getCanonicalDeclEv(ptr noundef nonnull align 8 dereferenceable(112) %14)
  store ptr %15, ptr %5, align 8
  %16 = load ptr, ptr %4, align 8
  %17 = call noundef i32 @_ZN4llvm12UniqueVectorIPKN5clang16ObjCProtocolDeclEE6insertERKS4_(ptr noundef nonnull align 8 dereferenceable(72) %16, ptr noundef nonnull align 8 dereferenceable(8) %5)
  br label %41

18:                                               ; preds = %2
  %19 = load ptr, ptr %3, align 8
  %20 = call { ptr, ptr } @_ZNK5clang16ObjCProtocolDecl9protocolsEv(ptr noundef nonnull align 8 dereferenceable(112) %19)
  %21 = getelementptr inbounds nuw { ptr, ptr }, ptr %7, i32 0, i32 0
  %22 = extractvalue { ptr, ptr } %20, 0
  store ptr %22, ptr %21, align 8
  %23 = getelementptr inbounds nuw { ptr, ptr }, ptr %7, i32 0, i32 1
  %24 = extractvalue { ptr, ptr } %20, 1
  store ptr %24, ptr %23, align 8
  store ptr %7, ptr %6, align 8
  %25 = load ptr, ptr %6, align 8
  %26 = call noundef ptr @_ZNK4llvm14iterator_rangeIPKPN5clang16ObjCProtocolDeclEE5beginEv(ptr noundef nonnull align 8 dereferenceable(16) %25)
  store ptr %26, ptr %8, align 8
  %27 = load ptr, ptr %6, align 8
  %28 = call noundef ptr @_ZNK4llvm14iterator_rangeIPKPN5clang16ObjCProtocolDeclEE3endEv(ptr noundef nonnull align 8 dereferenceable(16) %27)
  store ptr %28, ptr %9, align 8
  br label %29

29:                                               ; preds = %38, %18
  %30 = load ptr, ptr %8, align 8
  %31 = load ptr, ptr %9, align 8
  %32 = icmp ne ptr %30, %31
  br i1 %32, label %33, label %41

33:                                               ; preds = %29
  %34 = load ptr, ptr %8, align 8
  %35 = load ptr, ptr %34, align 8
  store ptr %35, ptr %10, align 8
  %36 = load ptr, ptr %10, align 8
  %37 = load ptr, ptr %4, align 8
  call void @_ZL34AppendFirstImpliedRuntimeProtocolsPKN5clang16ObjCProtocolDeclERN4llvm12UniqueVectorIS2_EE(ptr noundef %36, ptr noundef nonnull align 8 dereferenceable(72) %37)
  br label %38

38:                                               ; preds = %33
  %39 = load ptr, ptr %8, align 8
  %40 = getelementptr inbounds ptr, ptr %39, i32 1
  store ptr %40, ptr %8, align 8
  br label %29

41:                                               ; preds = %29, %13
  ret void
}