; Function Attrs: mustprogress nounwind uwtable
define internal fastcc void @_ZL34AppendFirstImpliedRuntimeProtocolsPKN5clang16ObjCProtocolDeclERN4llvm12UniqueVectorIS2_EE(ptr noundef nonnull %0, ptr noundef nonnull align 8 dereferenceable(72) %1) unnamed_addr #0 {
  %3 = alloca ptr, align 8
  %4 = tail call noundef zeroext i1 @_ZNK5clang16ObjCProtocolDecl20isNonRuntimeProtocolEv(ptr noundef nonnull align 8 dereferenceable(112) %0) #20
  br i1 %4, label %9, label %5

5:                                                ; preds = %2
  %6 = getelementptr inbounds nuw i8, ptr %0, i64 96
  %7 = load ptr, ptr %6, align 8
  store ptr %7, ptr %3, align 8
  %8 = call noundef i32 @_ZN4llvm12UniqueVectorIPKN5clang16ObjCProtocolDeclEE6insertERKS4_(ptr noundef nonnull align 8 dereferenceable(72) %1, ptr noundef nonnull align 8 dereferenceable(8) %3)
  br label %.loopexit

9:                                                ; preds = %2
  %10 = getelementptr inbounds nuw i8, ptr %0, i64 104
  %.0.copyload.i.i.i.i.i = load i64, ptr %10, align 8
  %.not.i.i.i = icmp eq i64 %.0.copyload.i.i.i.i.i, 0
  br i1 %.not.i.i.i, label %11, label %_ZNK5clang16ObjCProtocolDecl13hasDefinitionEv.exit.i.i

11:                                               ; preds = %9
  %12 = getelementptr inbounds nuw i8, ptr %0, i64 96
  %13 = load ptr, ptr %12, align 8
  %14 = getelementptr inbounds nuw i8, ptr %13, i64 88
  %15 = tail call noundef ptr @_ZNK5clang12RedeclarableINS_16ObjCProtocolDeclEE8DeclLink11getPreviousEPKS1_(ptr noundef nonnull align 8 dereferenceable(16) %14, ptr noundef nonnull %13)
  %.0.copyload.i.i.i.pre.i.i.i = load i64, ptr %10, align 8
  br label %_ZNK5clang16ObjCProtocolDecl13hasDefinitionEv.exit.i.i

_ZNK5clang16ObjCProtocolDecl13hasDefinitionEv.exit.i.i: ; preds = %11, %9
  %.0.copyload.i.i.i.i1.i = phi i64 [ %.0.copyload.i.i.i.pre.i.i.i, %11 ], [ %.0.copyload.i.i.i.i.i, %9 ]
  %16 = icmp ugt i64 %.0.copyload.i.i.i.i1.i, 7
  br i1 %16, label %_ZNK5clang16ObjCProtocolDecl13hasDefinitionEv.exit.i3.thread.i, label %_ZNK5clang16ObjCProtocolDecl14protocol_beginEv.exit.i

_ZNK5clang16ObjCProtocolDecl13hasDefinitionEv.exit.i3.thread.i: ; preds = %_ZNK5clang16ObjCProtocolDecl13hasDefinitionEv.exit.i.i
  %17 = and i64 %.0.copyload.i.i.i.i1.i, -8
  %18 = inttoptr i64 %17 to ptr
  %19 = getelementptr inbounds nuw i8, ptr %18, i64 8
  %20 = load ptr, ptr %19, align 8
  br label %_ZNK5clang16ObjCProtocolDecl9protocolsEv.exit

_ZNK5clang16ObjCProtocolDecl14protocol_beginEv.exit.i: ; preds = %_ZNK5clang16ObjCProtocolDecl13hasDefinitionEv.exit.i.i
  %.not.i.i2.i = icmp eq i64 %.0.copyload.i.i.i.i1.i, 0
  br i1 %.not.i.i2.i, label %_ZNK5clang16ObjCProtocolDecl13hasDefinitionEv.exit.i3.i, label %.loopexit

_ZNK5clang16ObjCProtocolDecl13hasDefinitionEv.exit.i3.i: ; preds = %_ZNK5clang16ObjCProtocolDecl14protocol_beginEv.exit.i
  %21 = getelementptr inbounds nuw i8, ptr %0, i64 96
  %22 = load ptr, ptr %21, align 8
  %23 = getelementptr inbounds nuw i8, ptr %22, i64 88
  %24 = tail call noundef ptr @_ZNK5clang12RedeclarableINS_16ObjCProtocolDeclEE8DeclLink11getPreviousEPKS1_(ptr noundef nonnull align 8 dereferenceable(16) %23, ptr noundef nonnull %22)
  %.0.copyload.i.i.i.pre.i.i6.i = load i64, ptr %10, align 8
  %25 = icmp ugt i64 %.0.copyload.i.i.i.pre.i.i6.i, 7
  br i1 %25, label %_ZNK5clang16ObjCProtocolDecl13hasDefinitionEv.exit.i3.i._crit_edge, label %.loopexit

_ZNK5clang16ObjCProtocolDecl13hasDefinitionEv.exit.i3.i._crit_edge: ; preds = %_ZNK5clang16ObjCProtocolDecl13hasDefinitionEv.exit.i3.i
  %.pre = and i64 %.0.copyload.i.i.i.pre.i.i6.i, -8
  %.pre14 = inttoptr i64 %.pre to ptr
  br label %_ZNK5clang16ObjCProtocolDecl9protocolsEv.exit

_ZNK5clang16ObjCProtocolDecl9protocolsEv.exit:    ; preds = %_ZNK5clang16ObjCProtocolDecl13hasDefinitionEv.exit.i3.thread.i, %_ZNK5clang16ObjCProtocolDecl13hasDefinitionEv.exit.i3.i._crit_edge
  %.pre-phi15 = phi ptr [ %.pre14, %_ZNK5clang16ObjCProtocolDecl13hasDefinitionEv.exit.i3.i._crit_edge ], [ %18, %_ZNK5clang16ObjCProtocolDecl13hasDefinitionEv.exit.i3.thread.i ]
  %.0.i913.i = phi ptr [ null, %_ZNK5clang16ObjCProtocolDecl13hasDefinitionEv.exit.i3.i._crit_edge ], [ %20, %_ZNK5clang16ObjCProtocolDecl13hasDefinitionEv.exit.i3.thread.i ]
  %26 = getelementptr inbounds nuw i8, ptr %.pre-phi15, i64 8
  %27 = load ptr, ptr %26, align 8
  %28 = getelementptr inbounds nuw i8, ptr %.pre-phi15, i64 16
  %29 = load i32, ptr %28, align 8
  %30 = zext i32 %29 to i64
  %31 = getelementptr inbounds nuw ptr, ptr %27, i64 %30
  %.not12 = icmp eq ptr %.0.i913.i, %31
  br i1 %.not12, label %.loopexit, label %.lr.ph

.lr.ph:                                           ; preds = %_ZNK5clang16ObjCProtocolDecl9protocolsEv.exit, %.lr.ph
  %.013 = phi ptr [ %33, %.lr.ph ], [ %.0.i913.i, %_ZNK5clang16ObjCProtocolDecl9protocolsEv.exit ]
  %32 = load ptr, ptr %.013, align 8
  tail call fastcc void @_ZL34AppendFirstImpliedRuntimeProtocolsPKN5clang16ObjCProtocolDeclERN4llvm12UniqueVectorIS2_EE(ptr noundef %32, ptr noundef nonnull align 8 dereferenceable(72) %1)
  %33 = getelementptr inbounds nuw i8, ptr %.013, i64 8
  %.not = icmp eq ptr %33, %31
  br i1 %.not, label %.loopexit, label %.lr.ph

.loopexit:                                        ; preds = %.lr.ph, %_ZNK5clang16ObjCProtocolDecl14protocol_beginEv.exit.i, %_ZNK5clang16ObjCProtocolDecl13hasDefinitionEv.exit.i3.i, %_ZNK5clang16ObjCProtocolDecl9protocolsEv.exit, %5
  ret void
}